; Function Attrs: nounwind sspstrong uwtable
define dso_local void @tcg_gen_gvec_5_ptr(i32 noundef %0, i32 noundef %1, i32 noundef %2, i32 noundef %3, i32 noundef %4, ptr noundef %5, i32 noundef %6, i32 noundef %7, i32 noundef %8, ptr noundef readonly captures(none) %9) local_unnamed_addr #2 {
  switch i32 %6, label %13 [
    i32 8, label %11
    i32 16, label %11
    i32 32, label %11
  ]

11:                                               ; preds = %10, %10, %10
  %12 = icmp ule i32 %6, %7
  br label %check_size_align.exit.i

13:                                               ; preds = %10
  %14 = icmp eq i32 %6, %7
  br label %check_size_align.exit.i

check_size_align.exit.i:                          ; preds = %13, %11
  %.sink.i.i = phi i1 [ %12, %11 ], [ %14, %13 ]
  tail call void @llvm.assume(i1 %.sink.i.i)
  %15 = icmp ult i32 %7, 2049
  tail call void @llvm.assume(i1 %15)
  %16 = icmp samesign ugt i32 %7, 15
  %17 = select i1 %16, i32 15, i32 7
  %18 = and i32 %17, %7
  %19 = icmp eq i32 %18, 0
  tail call void @llvm.assume(i1 %19)
  %20 = add i32 %8, 2097152
  %21 = icmp ult i32 %20, 4194304
  br i1 %21, label %simd_desc.exit, label %22

22:                                               ; preds = %check_size_align.exit.i
  %23 = icmp ult i32 %8, 4194304
  tail call void @llvm.assume(i1 %23)
  br label %simd_desc.exit

simd_desc.exit:                                   ; preds = %check_size_align.exit.i, %22
  %24 = lshr i32 %6, 3
  %25 = lshr i32 %7, 3
  %26 = add nuw nsw i32 %25, 255
  %27 = icmp eq i32 %24, %25
  %28 = shl i32 %24, 8
  %29 = add i32 %28, 768
  %30 = and i32 %29, 768
  %31 = select i1 %27, i32 512, i32 %30
  %32 = and i32 %26, 255
  %33 = or disjoint i32 %32, %31
  %34 = shl i32 %8, 10
  %35 = or disjoint i32 %33, %34
  %36 = tail call ptr @tcg_constant_i32(i32 noundef %35) #10
  %37 = tail call ptr @tcg_temp_ebb_new_ptr() #10
  %38 = tail call ptr @tcg_temp_ebb_new_ptr() #10
  %39 = tail call ptr @tcg_temp_ebb_new_ptr() #10
  %40 = tail call ptr @tcg_temp_ebb_new_ptr() #10
  %41 = tail call ptr @tcg_temp_ebb_new_ptr() #10
  %42 = load ptr, ptr @tcg_env, align 8
  %43 = zext i32 %0 to i64
  tail call void @tcg_gen_addi_i64(ptr noundef %37, ptr noundef %42, i64 noundef range(i64 0, 4294967296) %43) #10
  %44 = load ptr, ptr @tcg_env, align 8
  %45 = zext i32 %1 to i64
  tail call void @tcg_gen_addi_i64(ptr noundef %38, ptr noundef %44, i64 noundef range(i64 0, 4294967296) %45) #10
  %46 = load ptr, ptr @tcg_env, align 8
  %47 = zext i32 %2 to i64
  tail call void @tcg_gen_addi_i64(ptr noundef %39, ptr noundef %46, i64 noundef range(i64 0, 4294967296) %47) #10
  %48 = load ptr, ptr @tcg_env, align 8
  %49 = zext i32 %3 to i64
  tail call void @tcg_gen_addi_i64(ptr noundef %40, ptr noundef %48, i64 noundef range(i64 0, 4294967296) %49) #10
  %50 = load ptr, ptr @tcg_env, align 8
  %51 = zext i32 %4 to i64
  tail call void @tcg_gen_addi_i64(ptr noundef %41, ptr noundef %50, i64 noundef range(i64 0, 4294967296) %51) #10
  tail call void %9(ptr noundef %37, ptr noundef %38, ptr noundef %39, ptr noundef %40, ptr noundef %41, ptr noundef %5, ptr noundef %36) #10
  tail call void @tcg_temp_free_ptr(ptr noundef %37) #10
  tail call void @tcg_temp_free_ptr(ptr noundef %38) #10
  tail call void @tcg_temp_free_ptr(ptr noundef %39) #10
  tail call void @tcg_temp_free_ptr(ptr noundef %40) #10
  tail call void @tcg_temp_free_ptr(ptr noundef %41) #10
  ret void
}